target datalayout = "e-m:e-p270:32:32-p271:32:32-p272:64:64-i64:64-i128:128-f80:128-n8:16:32:64-S128"
target triple = "x86_64-pc-linux-gnu"

%"class.std::__cxx11::basic_string" = type { %"struct.std::__cxx11::basic_string<char>::_Alloc_hider", i64, %union.anon }
%"struct.std::__cxx11::basic_string<char>::_Alloc_hider" = type { ptr }
%union.anon = type { i64, [8 x i8] }
%"class.gmx::StringInputStream" = type { %"class.gmx::TextInputStream", %"class.std::__cxx11::basic_string", i64 }
%"class.gmx::TextInputStream" = type { ptr }

; Function Attrs: mustprogress uwtable
define noundef zeroext i1 @_ZN3gmx17StringInputStream8readLineEPNSt7__cxx1112basic_stringIcSt11char_traitsIcESaIcEEE(ptr noundef nonnull align 8 dereferenceable(48) %0, ptr noundef %1) unnamed_addr #1 align 2 {
  %3 = alloca i1, align 1
  %4 = alloca ptr, align 8
  %5 = alloca ptr, align 8
  %6 = alloca i64, align 8
  %7 = alloca %"class.std::__cxx11::basic_string", align 8
  store ptr %0, ptr %4, align 8
  store ptr %1, ptr %5, align 8
  %8 = load ptr, ptr %4, align 8
  %9 = getelementptr inbounds %"class.gmx::StringInputStream", ptr %8, i32 0, i32 2
  %10 = load i64, ptr %9, align 8
  %11 = getelementptr inbounds %"class.gmx::StringInputStream", ptr %8, i32 0, i32 1
  %12 = call noundef i64 @_ZNKSt7__cxx1112basic_stringIcSt11char_traitsIcESaIcEE4sizeEv(ptr noundef nonnull align 8 dereferenceable(32) %11) #9
  %13 = icmp eq i64 %10, %12
  br i1 %13, label %14, label %16

14:                                               ; preds = %2
  %15 = load ptr, ptr %5, align 8
  call void @_ZNSt7__cxx1112basic_stringIcSt11char_traitsIcESaIcEE5clearEv(ptr noundef nonnull align 8 dereferenceable(32) %15) #9
  store i1 false, ptr %3, align 1
  br label %41

16:                                               ; preds = %2
  %17 = getelementptr inbounds %"class.gmx::StringInputStream", ptr %8, i32 0, i32 1
  %18 = getelementptr inbounds %"class.gmx::StringInputStream", ptr %8, i32 0, i32 2
  %19 = load i64, ptr %18, align 8
  %20 = call noundef i64 @_ZNKSt7__cxx1112basic_stringIcSt11char_traitsIcESaIcEE4findEcm(ptr noundef nonnull align 8 dereferenceable(32) %17, i8 noundef signext 10, i64 noundef %19) #9
  store i64 %20, ptr %6, align 8
  %21 = load i64, ptr %6, align 8
  %22 = icmp eq i64 %21, -1
  br i1 %22, label %23, label %26

23:                                               ; preds = %16
  %24 = getelementptr inbounds %"class.gmx::StringInputStream", ptr %8, i32 0, i32 1
  %25 = call noundef i64 @_ZNKSt7__cxx1112basic_stringIcSt11char_traitsIcESaIcEE4sizeEv(ptr noundef nonnull align 8 dereferenceable(32) %24) #9
  store i64 %25, ptr %6, align 8
  br label %29

26:                                               ; preds = %16
  %27 = load i64, ptr %6, align 8
  %28 = add i64 %27, 1
  store i64 %28, ptr %6, align 8
  br label %29

29:                                               ; preds = %26, %23
  %30 = load ptr, ptr %5, align 8
  %31 = getelementptr inbounds %"class.gmx::StringInputStream", ptr %8, i32 0, i32 1
  %32 = getelementptr inbounds %"class.gmx::StringInputStream", ptr %8, i32 0, i32 2
  %33 = load i64, ptr %32, align 8
  %34 = load i64, ptr %6, align 8
  %35 = getelementptr inbounds %"class.gmx::StringInputStream", ptr %8, i32 0, i32 2
  %36 = load i64, ptr %35, align 8
  %37 = sub i64 %34, %36
  call void @_ZNKSt7__cxx1112basic_stringIcSt11char_traitsIcESaIcEE6substrEmm(ptr dead_on_unwind writable sret(%"class.std::__cxx11::basic_string") align 8 %7, ptr noundef nonnull align 8 dereferenceable(32) %31, i64 noundef %33, i64 noundef %37)
  %38 = call noundef nonnull align 8 dereferenceable(32) ptr @_ZNSt7__cxx1112basic_stringIcSt11char_traitsIcESaIcEE6assignEOS4_(ptr noundef nonnull align 8 dereferenceable(32) %30, ptr noundef nonnull align 8 dereferenceable(32) %7) #9
  call void @_ZNSt7__cxx1112basic_stringIcSt11char_traitsIcESaIcEED1Ev(ptr noundef nonnull align 8 dereferenceable(32) %7) #9
  %39 = load i64, ptr %6, align 8
  %40 = getelementptr inbounds %"class.gmx::StringInputStream", ptr %8, i32 0, i32 2
  store i64 %39, ptr %40, align 8
  store i1 true, ptr %3, align 1
  br label %41

41:                                               ; preds = %29, %14
  %42 = load i1, ptr %3, align 1
  ret i1 %42
}