; Function Attrs: mustprogress uwtable
define noundef zeroext i1 @_ZN3gmx17StringInputStream8readLineEPNSt7__cxx1112basic_stringIcSt11char_traitsIcESaIcEEE(ptr noundef nonnull align 8 dereferenceable(48) %0, ptr noundef %1) unnamed_addr #1 align 2 {
  %3 = alloca %"class.std::__cxx11::basic_string", align 8
  %4 = getelementptr inbounds i8, ptr %0, i64 40
  %5 = load i64, ptr %4, align 8
  %6 = getelementptr inbounds i8, ptr %0, i64 8
  %7 = tail call noundef i64 @_ZNKSt7__cxx1112basic_stringIcSt11char_traitsIcESaIcEE4sizeEv(ptr noundef nonnull align 8 dereferenceable(32) %6) #10
  %8 = icmp ne i64 %5, %7
  br i1 %8, label %10, label %9

9:                                                ; preds = %2
  tail call void @_ZNSt7__cxx1112basic_stringIcSt11char_traitsIcESaIcEE5clearEv(ptr noundef nonnull align 8 dereferenceable(32) %1) #10
  br label %22

10:                                               ; preds = %2
  %11 = load i64, ptr %4, align 8
  %12 = tail call noundef i64 @_ZNKSt7__cxx1112basic_stringIcSt11char_traitsIcESaIcEE4findEcm(ptr noundef nonnull align 8 dereferenceable(32) %6, i8 noundef signext 10, i64 noundef %11) #10
  %13 = icmp eq i64 %12, -1
  br i1 %13, label %14, label %16

14:                                               ; preds = %10
  %15 = tail call noundef i64 @_ZNKSt7__cxx1112basic_stringIcSt11char_traitsIcESaIcEE4sizeEv(ptr noundef nonnull align 8 dereferenceable(32) %6) #10
  br label %18

16:                                               ; preds = %10
  %17 = add nuw i64 %12, 1
  br label %18

18:                                               ; preds = %16, %14
  %.0 = phi i64 [ %15, %14 ], [ %17, %16 ]
  %19 = load i64, ptr %4, align 8
  %20 = sub i64 %.0, %19
  call void @_ZNKSt7__cxx1112basic_stringIcSt11char_traitsIcESaIcEE6substrEmm(ptr dead_on_unwind nonnull writable sret(%"class.std::__cxx11::basic_string") align 8 %3, ptr noundef nonnull align 8 dereferenceable(32) %6, i64 noundef %19, i64 noundef %20)
  %21 = call noundef nonnull align 8 dereferenceable(32) ptr @_ZNSt7__cxx1112basic_stringIcSt11char_traitsIcESaIcEE6assignEOS4_(ptr noundef nonnull align 8 dereferenceable(32) %1, ptr noundef nonnull align 8 dereferenceable(32) %3) #10
  call void @_ZNSt7__cxx1112basic_stringIcSt11char_traitsIcESaIcEED1Ev(ptr noundef nonnull align 8 dereferenceable(32) %3) #10
  store i64 %.0, ptr %4, align 8
  br label %22

22:                                               ; preds = %18, %9
  ret i1 %8
}